; Function Attrs: mustprogress nounwind uwtable
define internal void @"_ZN2rc10ShrinkableINSt7__cxx1112basic_stringIcSt11char_traitsIcESaIcEEEE14ShrinkableImplINS_10shrinkable6detail20MapShrinksShrinkableIS6_ZNS9_6filterIS6_RKZNS_9ArbitraryIN3nix13StorePathNameEvE9arbitraryEvE3$_0EENS_5MaybeINS0_IT_EEEESM_OT0_EUlONS_3SeqIS7_EEE_EEED0Ev"(ptr noundef nonnull align 8 dereferenceable(32) %0) unnamed_addr #5 align 2 personality ptr @__gxx_personality_v0 {
  store ptr getelementptr inbounds ({ [8 x ptr] }, ptr @"_ZTVN2rc10ShrinkableINSt7__cxx1112basic_stringIcSt11char_traitsIcESaIcEEEE14ShrinkableImplINS_10shrinkable6detail20MapShrinksShrinkableIS6_ZNS9_6filterIS6_RKZNS_9ArbitraryIN3nix13StorePathNameEvE9arbitraryEvE3$_0EENS_5MaybeINS0_IT_EEEESM_OT0_EUlONS_3SeqIS7_EEE_EEEE", i64 0, i32 0, i64 2), ptr %0, align 8
  %2 = getelementptr inbounds i8, ptr %0, i64 16
  %.val.i = load ptr, ptr %2, align 8
  %.not.i.i.i = icmp eq ptr %.val.i, null
  br i1 %.not.i.i.i, label %"_ZN2rc10ShrinkableINSt7__cxx1112basic_stringIcSt11char_traitsIcESaIcEEEE14ShrinkableImplINS_10shrinkable6detail20MapShrinksShrinkableIS6_ZNS9_6filterIS6_RKZNS_9ArbitraryIN3nix13StorePathNameEvE9arbitraryEvE3$_0EENS_5MaybeINS0_IT_EEEESM_OT0_EUlONS_3SeqIS7_EEE_EEED2Ev.exit", label %3

3:                                                ; preds = %1
  %4 = load ptr, ptr %.val.i, align 8
  %5 = getelementptr inbounds i8, ptr %4, i64 24
  %6 = load ptr, ptr %5, align 8
  invoke void %6(ptr noundef nonnull align 8 dereferenceable(8) %.val.i)
          to label %"_ZN2rc10ShrinkableINSt7__cxx1112basic_stringIcSt11char_traitsIcESaIcEEEE14ShrinkableImplINS_10shrinkable6detail20MapShrinksShrinkableIS6_ZNS9_6filterIS6_RKZNS_9ArbitraryIN3nix13StorePathNameEvE9arbitraryEvE3$_0EENS_5MaybeINS0_IT_EEEESM_OT0_EUlONS_3SeqIS7_EEE_EEED2Ev.exit" unwind label %7

7:                                                ; preds = %3
  %8 = landingpad { ptr, i32 }
          catch ptr null
  %9 = extractvalue { ptr, i32 } %8, 0
  tail call void @__clang_call_terminate(ptr %9) #24
  unreachable

"_ZN2rc10ShrinkableINSt7__cxx1112basic_stringIcSt11char_traitsIcESaIcEEEE14ShrinkableImplINS_10shrinkable6detail20MapShrinksShrinkableIS6_ZNS9_6filterIS6_RKZNS_9ArbitraryIN3nix13StorePathNameEvE9arbitraryEvE3$_0EENS_5MaybeINS0_IT_EEEESM_OT0_EUlONS_3SeqIS7_EEE_EEED2Ev.exit": ; preds = %1, %3
  tail call void @_ZdlPv(ptr noundef nonnull %0) #23
  ret void
}